target datalayout = "e-m:e-p270:32:32-p271:32:32-p272:64:64-i64:64-i128:128-f80:128-n8:16:32:64-S128"
target triple = "x86_64-pc-linux-gnu"

%struct.ScanKeyData = type { i32, i16, i16, i32, i32, %struct.FmgrInfo, i64 }
%struct.FmgrInfo = type { ptr, i32, i16, i8, i8, i8, ptr, ptr, ptr }
%struct.RelationData = type { %struct.RelFileLocator, ptr, i32, i32, i8, i8, i8, i8, i8, i32, i32, i32, i32, ptr, ptr, i32, %struct.LockInfoData, ptr, ptr, ptr, ptr, ptr, i8, ptr, ptr, ptr, ptr, ptr, ptr, i32, ptr, i8, ptr, ptr, i32, i8, i32, ptr, i8, ptr, ptr, ptr, ptr, ptr, ptr, ptr, i32, ptr, ptr, ptr, ptr, ptr, ptr, ptr, ptr, ptr, ptr, ptr, ptr, ptr, ptr, ptr, ptr, ptr, ptr, ptr, i32, i8, ptr }
%struct.RelFileLocator = type { i32, i32, i32 }
%struct.LockInfoData = type { %struct.LockRelId }
%struct.LockRelId = type { i32, i32 }
%struct.FormData_pg_class = type { i32, %struct.nameData, i32, i32, i32, i32, i32, i32, i32, i32, float, i32, i32, i8, i8, i8, i8, i16, i16, i8, i8, i8, i8, i8, i8, i8, i8, i32, i32, i32 }
%struct.nameData = type { [64 x i8] }
%struct.FormData_pg_policy = type { i32, %struct.nameData, i32, i8, i8 }
%struct.HeapTupleData = type { i32, %struct.ItemPointerData, i32, ptr }
%struct.ItemPointerData = type { %struct.BlockIdData, i16 }
%struct.BlockIdData = type { i16, i16 }
%struct.HeapTupleHeaderData = type { %union.anon, %struct.ItemPointerData, i16, i16, i8, [0 x i8] }
%union.anon = type { %struct.HeapTupleFields }
%struct.HeapTupleFields = type { i32, i32, %union.anon.0 }
%union.anon.0 = type { i32 }

@.str.2 = private unnamed_addr constant [9 x i8] c"policy.c\00", align 1
@.str.3 = private unnamed_addr constant [35 x i8] c"could not find tuple for policy %u\00", align 1
@__func__.RemovePolicyById = private unnamed_addr constant [17 x i8] c"RemovePolicyById\00", align 1
@.str.4 = private unnamed_addr constant [20 x i8] c"\22%s\22 is not a table\00", align 1
@allowSystemTableMods = external global i8, align 1
@.str.5 = private unnamed_addr constant [44 x i8] c"permission denied: \22%s\22 is a system catalog\00", align 1

; Function Attrs: inlinehint nounwind uwtable
define internal ptr @GETSTRUCT(ptr noundef %0) #3 {
  %2 = alloca ptr, align 8
  store ptr %0, ptr %2, align 8
  %3 = load ptr, ptr %2, align 8
  %4 = getelementptr inbounds nuw %struct.HeapTupleData, ptr %3, i32 0, i32 3
  %5 = load ptr, ptr %4, align 8
  %6 = load ptr, ptr %2, align 8
  %7 = getelementptr inbounds nuw %struct.HeapTupleData, ptr %6, i32 0, i32 3
  %8 = load ptr, ptr %7, align 8
  %9 = getelementptr inbounds nuw %struct.HeapTupleHeaderData, ptr %8, i32 0, i32 4
  %10 = load i8, ptr %9, align 2
  %11 = zext i8 %10 to i32
  %12 = sext i32 %11 to i64
  %13 = getelementptr inbounds i8, ptr %5, i64 %12
  ret ptr %13
}

; Function Attrs: inlinehint nounwind uwtable
define internal i64 @ObjectIdGetDatum(i32 noundef %0) #3 {
  %2 = alloca i32, align 4
  store i32 %0, ptr %2, align 4
  %3 = load i32, ptr %2, align 4
  %4 = zext i32 %3 to i64
  ret i64 %4
}

; Function Attrs: nounwind uwtable
define dso_local void @RemovePolicyById(i32 noundef %0) #0 {
  %2 = alloca i32, align 4
  %3 = alloca ptr, align 8
  %4 = alloca ptr, align 8
  %5 = alloca [1 x %struct.ScanKeyData], align 16
  %6 = alloca ptr, align 8
  %7 = alloca i32, align 4
  %8 = alloca ptr, align 8
  store i32 %0, ptr %2, align 4
  call void @llvm.lifetime.start.p0(i64 8, ptr %3) #8
  call void @llvm.lifetime.start.p0(i64 8, ptr %4) #8
  call void @llvm.lifetime.start.p0(i64 72, ptr %5) #8
  call void @llvm.lifetime.start.p0(i64 8, ptr %6) #8
  call void @llvm.lifetime.start.p0(i64 4, ptr %7) #8
  call void @llvm.lifetime.start.p0(i64 8, ptr %8) #8
  %9 = call ptr @table_open(i32 noundef 3256, i32 noundef 3)
  store ptr %9, ptr %3, align 8
  %10 = getelementptr inbounds [1 x %struct.ScanKeyData], ptr %5, i64 0, i64 0
  %11 = load i32, ptr %2, align 4
  %12 = call i64 @ObjectIdGetDatum(i32 noundef %11)
  call void @ScanKeyInit(ptr noundef %10, i16 noundef signext 1, i16 noundef zeroext 3, i32 noundef 184, i64 noundef %12)
  %13 = load ptr, ptr %3, align 8
  %14 = getelementptr inbounds [1 x %struct.ScanKeyData], ptr %5, i64 0, i64 0
  %15 = call ptr @systable_beginscan(ptr noundef %13, i32 noundef 3257, i1 noundef zeroext true, ptr noundef null, i32 noundef 1, ptr noundef %14)
  store ptr %15, ptr %4, align 8
  %16 = load ptr, ptr %4, align 8
  %17 = call ptr @systable_getnext(ptr noundef %16)
  store ptr %17, ptr %6, align 8
  %18 = load ptr, ptr %6, align 8
  %19 = icmp ne ptr %18, null
  br i1 %19, label %32, label %20

20:                                               ; preds = %1
  br label %21

21:                                               ; preds = %20
  br i1 true, label %22, label %24

22:                                               ; preds = %21
  %23 = call zeroext i1 @errstart_cold(i32 noundef 21, ptr noundef null) #9
  br i1 %23, label %26, label %29

24:                                               ; preds = %21
  %25 = call zeroext i1 @errstart(i32 noundef 21, ptr noundef null)
  br i1 %25, label %26, label %29

26:                                               ; preds = %24, %22
  %27 = load i32, ptr %2, align 4
  %28 = call i32 (ptr, ...) @errmsg_internal(ptr noundef @.str.3, i32 noundef %27)
  call void @errfinish(ptr noundef @.str.2, i32 noundef 358, ptr noundef @__func__.RemovePolicyById)
  br label %29

29:                                               ; preds = %26, %24, %22
  unreachable

30:                                               ; No predecessors!
  br label %31

31:                                               ; preds = %30
  br label %32

32:                                               ; preds = %31, %1
  %33 = load ptr, ptr %6, align 8
  %34 = call ptr @GETSTRUCT(ptr noundef %33)
  %35 = getelementptr inbounds nuw %struct.FormData_pg_policy, ptr %34, i32 0, i32 2
  %36 = load i32, ptr %35, align 4
  store i32 %36, ptr %7, align 4
  %37 = load i32, ptr %7, align 4
  %38 = call ptr @table_open(i32 noundef %37, i32 noundef 8)
  store ptr %38, ptr %8, align 8
  %39 = load ptr, ptr %8, align 8
  %40 = getelementptr inbounds nuw %struct.RelationData, ptr %39, i32 0, i32 13
  %41 = load ptr, ptr %40, align 8
  %42 = getelementptr inbounds nuw %struct.FormData_pg_class, ptr %41, i32 0, i32 16
  %43 = load i8, ptr %42, align 1
  %44 = sext i8 %43 to i32
  %45 = icmp ne i32 %44, 114
  br i1 %45, label %46, label %72

46:                                               ; preds = %32
  %47 = load ptr, ptr %8, align 8
  %48 = getelementptr inbounds nuw %struct.RelationData, ptr %47, i32 0, i32 13
  %49 = load ptr, ptr %48, align 8
  %50 = getelementptr inbounds nuw %struct.FormData_pg_class, ptr %49, i32 0, i32 16
  %51 = load i8, ptr %50, align 1
  %52 = sext i8 %51 to i32
  %53 = icmp ne i32 %52, 112
  br i1 %53, label %54, label %72

54:                                               ; preds = %46
  br label %55

55:                                               ; preds = %54
  br i1 true, label %56, label %58

56:                                               ; preds = %55
  %57 = call zeroext i1 @errstart_cold(i32 noundef 21, ptr noundef null) #9
  br i1 %57, label %60, label %69

58:                                               ; preds = %55
  %59 = call zeroext i1 @errstart(i32 noundef 21, ptr noundef null)
  br i1 %59, label %60, label %69

60:                                               ; preds = %58, %56
  %61 = call i32 @errcode(i32 noundef 151027844)
  %62 = load ptr, ptr %8, align 8
  %63 = getelementptr inbounds nuw %struct.RelationData, ptr %62, i32 0, i32 13
  %64 = load ptr, ptr %63, align 8
  %65 = getelementptr inbounds nuw %struct.FormData_pg_class, ptr %64, i32 0, i32 1
  %66 = getelementptr inbounds nuw %struct.nameData, ptr %65, i32 0, i32 0
  %67 = getelementptr inbounds [64 x i8], ptr %66, i64 0, i64 0
  %68 = call i32 (ptr, ...) @errmsg(ptr noundef @.str.4, ptr noundef %67)
  call void @errfinish(ptr noundef @.str.2, i32 noundef 374, ptr noundef @__func__.RemovePolicyById)
  br label %69

69:                                               ; preds = %60, %58, %56
  unreachable

70:                                               ; No predecessors!
  br label %71

71:                                               ; preds = %70
  br label %72

72:                                               ; preds = %71, %46, %32
  %73 = load i8, ptr @allowSystemTableMods, align 1, !range !4, !noundef !5
  %74 = trunc i8 %73 to i1
  br i1 %74, label %96, label %75

75:                                               ; preds = %72
  %76 = load ptr, ptr %8, align 8
  %77 = call zeroext i1 @IsSystemRelation(ptr noundef %76)
  br i1 %77, label %78, label %96

78:                                               ; preds = %75
  br label %79

79:                                               ; preds = %78
  br i1 true, label %80, label %82

80:                                               ; preds = %79
  %81 = call zeroext i1 @errstart_cold(i32 noundef 21, ptr noundef null) #9
  br i1 %81, label %84, label %93

82:                                               ; preds = %79
  %83 = call zeroext i1 @errstart(i32 noundef 21, ptr noundef null)
  br i1 %83, label %84, label %93

84:                                               ; preds = %82, %80
  %85 = call i32 @errcode(i32 noundef 16797828)
  %86 = load ptr, ptr %8, align 8
  %87 = getelementptr inbounds nuw %struct.RelationData, ptr %86, i32 0, i32 13
  %88 = load ptr, ptr %87, align 8
  %89 = getelementptr inbounds nuw %struct.FormData_pg_class, ptr %88, i32 0, i32 1
  %90 = getelementptr inbounds nuw %struct.nameData, ptr %89, i32 0, i32 0
  %91 = getelementptr inbounds [64 x i8], ptr %90, i64 0, i64 0
  %92 = call i32 (ptr, ...) @errmsg(ptr noundef @.str.5, ptr noundef %91)
  call void @errfinish(ptr noundef @.str.2, i32 noundef 380, ptr noundef @__func__.RemovePolicyById)
  br label %93

93:                                               ; preds = %84, %82, %80
  unreachable

94:                                               ; No predecessors!
  br label %95

95:                                               ; preds = %94
  br label %96

96:                                               ; preds = %95, %75, %72
  %97 = load ptr, ptr %3, align 8
  %98 = load ptr, ptr %6, align 8
  %99 = getelementptr inbounds nuw %struct.HeapTupleData, ptr %98, i32 0, i32 1
  call void @CatalogTupleDelete(ptr noundef %97, ptr noundef %99)
  %100 = load ptr, ptr %4, align 8
  call void @systable_endscan(ptr noundef %100)
  %101 = load ptr, ptr %8, align 8
  call void @CacheInvalidateRelcache(ptr noundef %101)
  %102 = load ptr, ptr %8, align 8
  call void @table_close(ptr noundef %102, i32 noundef 0)
  %103 = load ptr, ptr %3, align 8
  call void @table_close(ptr noundef %103, i32 noundef 3)
  call void @llvm.lifetime.end.p0(i64 8, ptr %8) #8
  call void @llvm.lifetime.end.p0(i64 4, ptr %7) #8
  call void @llvm.lifetime.end.p0(i64 8, ptr %6) #8
  call void @llvm.lifetime.end.p0(i64 72, ptr %5) #8
  call void @llvm.lifetime.end.p0(i64 8, ptr %4) #8
  call void @llvm.lifetime.end.p0(i64 8, ptr %3) #8
  ret void
}