; Function Attrs: nounwind uwtable
define dso_local void @RemovePolicyById(i32 noundef %0) local_unnamed_addr #0 {
  %2 = alloca [1 x %struct.ScanKeyData], align 16
  call void @llvm.lifetime.start.p0(i64 72, ptr nonnull %2) #8
  %3 = tail call ptr @table_open(i32 noundef 3256, i32 noundef 3) #8
  %4 = zext i32 %0 to i64
  call void @ScanKeyInit(ptr noundef nonnull %2, i16 noundef signext 1, i16 noundef zeroext 3, i32 noundef 184, i64 noundef %4) #8
  %5 = call ptr @systable_beginscan(ptr noundef %3, i32 noundef 3257, i1 noundef zeroext true, ptr noundef null, i32 noundef 1, ptr noundef nonnull %2) #8
  %6 = call ptr @systable_getnext(ptr noundef %5) #8
  %.not = icmp eq ptr %6, null
  br i1 %.not, label %7, label %10

7:                                                ; preds = %1
  %8 = call zeroext i1 @errstart_cold(i32 noundef 21, ptr noundef null) #9
  call void @llvm.assume(i1 %8)
  %9 = call i32 (ptr, ...) @errmsg_internal(ptr noundef nonnull @.str.3, i32 noundef %0) #8
  call void @errfinish(ptr noundef nonnull @.str.2, i32 noundef 358, ptr noundef nonnull @__func__.RemovePolicyById) #8
  unreachable

10:                                               ; preds = %1
  %11 = getelementptr i8, ptr %6, i64 16
  %.val = load ptr, ptr %11, align 8
  %12 = getelementptr inbounds nuw i8, ptr %.val, i64 22
  %13 = load i8, ptr %12, align 2
  %14 = zext i8 %13 to i64
  %15 = getelementptr inbounds nuw i8, ptr %.val, i64 %14
  %16 = getelementptr inbounds nuw i8, ptr %15, i64 68
  %17 = load i32, ptr %16, align 4
  %18 = call ptr @table_open(i32 noundef %17, i32 noundef 8) #8
  %19 = getelementptr inbounds nuw i8, ptr %18, i64 56
  %20 = load ptr, ptr %19, align 8
  %21 = getelementptr inbounds nuw i8, ptr %20, i64 115
  %22 = load i8, ptr %21, align 1
  switch i8 %22, label %23 [
    i8 114, label %29
    i8 112, label %29
  ]

23:                                               ; preds = %10
  %24 = call zeroext i1 @errstart_cold(i32 noundef 21, ptr noundef null) #9
  call void @llvm.assume(i1 %24)
  %25 = call i32 @errcode(i32 noundef 151027844) #8
  %26 = load ptr, ptr %19, align 8
  %27 = getelementptr inbounds nuw i8, ptr %26, i64 4
  %28 = call i32 (ptr, ...) @errmsg(ptr noundef nonnull @.str.4, ptr noundef nonnull %27) #8
  call void @errfinish(ptr noundef nonnull @.str.2, i32 noundef 374, ptr noundef nonnull @__func__.RemovePolicyById) #8
  unreachable

29:                                               ; preds = %10, %10
  %30 = load i8, ptr @allowSystemTableMods, align 1, !range !4, !noundef !5
  %31 = trunc nuw i8 %30 to i1
  br i1 %31, label %40, label %32

32:                                               ; preds = %29
  %33 = call zeroext i1 @IsSystemRelation(ptr noundef nonnull %18) #8
  br i1 %33, label %34, label %40

34:                                               ; preds = %32
  %35 = call zeroext i1 @errstart_cold(i32 noundef 21, ptr noundef null) #9
  call void @llvm.assume(i1 %35)
  %36 = call i32 @errcode(i32 noundef 16797828) #8
  %37 = load ptr, ptr %19, align 8
  %38 = getelementptr inbounds nuw i8, ptr %37, i64 4
  %39 = call i32 (ptr, ...) @errmsg(ptr noundef nonnull @.str.5, ptr noundef nonnull %38) #8
  call void @errfinish(ptr noundef nonnull @.str.2, i32 noundef 380, ptr noundef nonnull @__func__.RemovePolicyById) #8
  unreachable

40:                                               ; preds = %32, %29
  %41 = getelementptr inbounds nuw i8, ptr %6, i64 4
  call void @CatalogTupleDelete(ptr noundef %3, ptr noundef nonnull %41) #8
  call void @systable_endscan(ptr noundef %5) #8
  call void @CacheInvalidateRelcache(ptr noundef nonnull %18) #8
  call void @table_close(ptr noundef nonnull %18, i32 noundef 0) #8
  call void @table_close(ptr noundef %3, i32 noundef 3) #8
  call void @llvm.lifetime.end.p0(i64 72, ptr nonnull %2) #8
  ret void
}